target datalayout = "e-m:e-p270:32:32-p271:32:32-p272:64:64-i64:64-i128:128-f80:128-n8:16:32:64-S128"
target triple = "x86_64-pc-linux-gnu"

; Function Attrs: nounwind uwtable
define i32 @TS_RESP_verify_token(ptr noundef %0, ptr noundef %1) #0 {
  %3 = alloca ptr, align 8
  %4 = alloca ptr, align 8
  %5 = alloca ptr, align 8
  %6 = alloca i32, align 4
  store ptr %0, ptr %3, align 8, !tbaa !48
  store ptr %1, ptr %4, align 8, !tbaa !3
  call void @llvm.lifetime.start.p0(i64 8, ptr %5) #7
  %7 = load ptr, ptr %4, align 8, !tbaa !3
  %8 = call ptr @PKCS7_to_TS_TST_INFO(ptr noundef %7)
  store ptr %8, ptr %5, align 8, !tbaa !57
  call void @llvm.lifetime.start.p0(i64 4, ptr %6) #7
  store i32 0, ptr %6, align 4, !tbaa !16
  %9 = load ptr, ptr %5, align 8, !tbaa !57
  %10 = icmp ne ptr %9, null
  br i1 %10, label %11, label %17

11:                                               ; preds = %2
  %12 = load ptr, ptr %3, align 8, !tbaa !48
  %13 = load ptr, ptr %4, align 8, !tbaa !3
  %14 = load ptr, ptr %5, align 8, !tbaa !57
  %15 = call i32 @int_ts_RESP_verify_token(ptr noundef %12, ptr noundef %13, ptr noundef %14)
  store i32 %15, ptr %6, align 4, !tbaa !16
  %16 = load ptr, ptr %5, align 8, !tbaa !57
  call void @TS_TST_INFO_free(ptr noundef %16)
  br label %17

17:                                               ; preds = %11, %2
  %18 = load i32, ptr %6, align 4, !tbaa !16
  call void @llvm.lifetime.end.p0(i64 4, ptr %6) #7
  call void @llvm.lifetime.end.p0(i64 8, ptr %5) #7
  ret i32 %18
}