; Function Attrs: nounwind uwtable
define range(i32 0, 2) i32 @TS_RESP_verify_token(ptr noundef readonly captures(none) %0, ptr noundef %1) local_unnamed_addr #0 {
  %3 = tail call ptr @PKCS7_to_TS_TST_INFO(ptr noundef %1) #7
  %.not = icmp eq ptr %3, null
  br i1 %.not, label %6, label %4

4:                                                ; preds = %2
  %5 = tail call fastcc i32 @int_ts_RESP_verify_token(ptr noundef %0, ptr noundef %1, ptr noundef nonnull %3)
  tail call void @TS_TST_INFO_free(ptr noundef nonnull %3) #7
  br label %6

6:                                                ; preds = %4, %2
  %.0 = phi i32 [ %5, %4 ], [ 0, %2 ]
  ret i32 %.0
}